target datalayout = "e-m:e-p270:32:32-p271:32:32-p272:64:64-i64:64-i128:128-f80:128-n8:16:32:64-S128"
target triple = "x86_64-pc-linux-gnu"

%struct.Tuplestorestate = type { i32, i32, i8, i8, i8, i8, i64, i64, i64, i64, ptr, ptr, ptr, ptr, ptr, ptr, ptr, i32, i32, i32, i8, ptr, i32, i32, i32, i32, i64 }
%struct.TSReadPointer = type { i32, i8, i32, i32, i64 }

@InterruptPending = external global i32, align 4

; Function Attrs: nounwind uwtable
define dso_local zeroext i1 @tuplestore_skiptuples(ptr noundef %0, i64 noundef %1, i1 noundef zeroext %2) #0 {
  %4 = alloca i1, align 1
  %5 = alloca ptr, align 8
  %6 = alloca i64, align 8
  %7 = alloca i8, align 1
  %8 = alloca ptr, align 8
  %9 = alloca i32, align 4
  %10 = alloca ptr, align 8
  %11 = alloca i8, align 1
  store ptr %0, ptr %5, align 8
  store i64 %1, ptr %6, align 8
  %12 = zext i1 %2 to i8
  store i8 %12, ptr %7, align 1
  call void @llvm.lifetime.start.p0(i64 8, ptr %8) #7
  %13 = load ptr, ptr %5, align 8
  %14 = getelementptr inbounds nuw %struct.Tuplestorestate, ptr %13, i32 0, i32 21
  %15 = load ptr, ptr %14, align 8
  %16 = load ptr, ptr %5, align 8
  %17 = getelementptr inbounds nuw %struct.Tuplestorestate, ptr %16, i32 0, i32 22
  %18 = load i32, ptr %17, align 8
  %19 = sext i32 %18 to i64
  %20 = getelementptr inbounds %struct.TSReadPointer, ptr %15, i64 %19
  store ptr %20, ptr %8, align 8
  %21 = load i64, ptr %6, align 8
  %22 = icmp sle i64 %21, 0
  br i1 %22, label %23, label %24

23:                                               ; preds = %3
  store i1 true, ptr %4, align 1
  store i32 1, ptr %9, align 4
  br label %138

24:                                               ; preds = %3
  %25 = load ptr, ptr %5, align 8
  %26 = getelementptr inbounds nuw %struct.Tuplestorestate, ptr %25, i32 0, i32 0
  %27 = load i32, ptr %26, align 8
  switch i32 %27, label %104 [
    i32 0, label %28
  ]

28:                                               ; preds = %24
  %29 = load i8, ptr %7, align 1, !range !4, !noundef !5
  %30 = trunc i8 %29 to i1
  br i1 %30, label %31, label %64

31:                                               ; preds = %28
  %32 = load ptr, ptr %8, align 8
  %33 = getelementptr inbounds nuw %struct.TSReadPointer, ptr %32, i32 0, i32 1
  %34 = load i8, ptr %33, align 4, !range !4, !noundef !5
  %35 = trunc i8 %34 to i1
  br i1 %35, label %36, label %37

36:                                               ; preds = %31
  store i1 false, ptr %4, align 1
  store i32 1, ptr %9, align 4
  br label %138

37:                                               ; preds = %31
  %38 = load ptr, ptr %5, align 8
  %39 = getelementptr inbounds nuw %struct.Tuplestorestate, ptr %38, i32 0, i32 18
  %40 = load i32, ptr %39, align 4
  %41 = load ptr, ptr %8, align 8
  %42 = getelementptr inbounds nuw %struct.TSReadPointer, ptr %41, i32 0, i32 2
  %43 = load i32, ptr %42, align 8
  %44 = sub i32 %40, %43
  %45 = sext i32 %44 to i64
  %46 = load i64, ptr %6, align 8
  %47 = icmp sge i64 %45, %46
  br i1 %47, label %48, label %56

48:                                               ; preds = %37
  %49 = load i64, ptr %6, align 8
  %50 = load ptr, ptr %8, align 8
  %51 = getelementptr inbounds nuw %struct.TSReadPointer, ptr %50, i32 0, i32 2
  %52 = load i32, ptr %51, align 8
  %53 = sext i32 %52 to i64
  %54 = add i64 %53, %49
  %55 = trunc i64 %54 to i32
  store i32 %55, ptr %51, align 8
  store i1 true, ptr %4, align 1
  store i32 1, ptr %9, align 4
  br label %138

56:                                               ; preds = %37
  %57 = load ptr, ptr %5, align 8
  %58 = getelementptr inbounds nuw %struct.Tuplestorestate, ptr %57, i32 0, i32 18
  %59 = load i32, ptr %58, align 4
  %60 = load ptr, ptr %8, align 8
  %61 = getelementptr inbounds nuw %struct.TSReadPointer, ptr %60, i32 0, i32 2
  store i32 %59, ptr %61, align 8
  %62 = load ptr, ptr %8, align 8
  %63 = getelementptr inbounds nuw %struct.TSReadPointer, ptr %62, i32 0, i32 1
  store i8 1, ptr %63, align 4
  store i1 false, ptr %4, align 1
  store i32 1, ptr %9, align 4
  br label %138

64:                                               ; preds = %28
  %65 = load ptr, ptr %8, align 8
  %66 = getelementptr inbounds nuw %struct.TSReadPointer, ptr %65, i32 0, i32 1
  %67 = load i8, ptr %66, align 4, !range !4, !noundef !5
  %68 = trunc i8 %67 to i1
  br i1 %68, label %69, label %79

69:                                               ; preds = %64
  %70 = load ptr, ptr %5, align 8
  %71 = getelementptr inbounds nuw %struct.Tuplestorestate, ptr %70, i32 0, i32 18
  %72 = load i32, ptr %71, align 4
  %73 = load ptr, ptr %8, align 8
  %74 = getelementptr inbounds nuw %struct.TSReadPointer, ptr %73, i32 0, i32 2
  store i32 %72, ptr %74, align 8
  %75 = load ptr, ptr %8, align 8
  %76 = getelementptr inbounds nuw %struct.TSReadPointer, ptr %75, i32 0, i32 1
  store i8 0, ptr %76, align 4
  %77 = load i64, ptr %6, align 8
  %78 = add i64 %77, -1
  store i64 %78, ptr %6, align 8
  br label %79

79:                                               ; preds = %69, %64
  %80 = load ptr, ptr %8, align 8
  %81 = getelementptr inbounds nuw %struct.TSReadPointer, ptr %80, i32 0, i32 2
  %82 = load i32, ptr %81, align 8
  %83 = load ptr, ptr %5, align 8
  %84 = getelementptr inbounds nuw %struct.Tuplestorestate, ptr %83, i32 0, i32 17
  %85 = load i32, ptr %84, align 8
  %86 = sub i32 %82, %85
  %87 = sext i32 %86 to i64
  %88 = load i64, ptr %6, align 8
  %89 = icmp sgt i64 %87, %88
  br i1 %89, label %90, label %98

90:                                               ; preds = %79
  %91 = load i64, ptr %6, align 8
  %92 = load ptr, ptr %8, align 8
  %93 = getelementptr inbounds nuw %struct.TSReadPointer, ptr %92, i32 0, i32 2
  %94 = load i32, ptr %93, align 8
  %95 = sext i32 %94 to i64
  %96 = sub i64 %95, %91
  %97 = trunc i64 %96 to i32
  store i32 %97, ptr %93, align 8
  store i1 true, ptr %4, align 1
  store i32 1, ptr %9, align 4
  br label %138

98:                                               ; preds = %79
  %99 = load ptr, ptr %5, align 8
  %100 = getelementptr inbounds nuw %struct.Tuplestorestate, ptr %99, i32 0, i32 17
  %101 = load i32, ptr %100, align 8
  %102 = load ptr, ptr %8, align 8
  %103 = getelementptr inbounds nuw %struct.TSReadPointer, ptr %102, i32 0, i32 2
  store i32 %101, ptr %103, align 8
  store i1 false, ptr %4, align 1
  store i32 1, ptr %9, align 4
  br label %138

104:                                              ; preds = %24
  br label %105

105:                                              ; preds = %136, %104
  %106 = load i64, ptr %6, align 8
  %107 = add i64 %106, -1
  store i64 %107, ptr %6, align 8
  %108 = icmp sgt i64 %106, 0
  br i1 %108, label %109, label %137

109:                                              ; preds = %105
  call void @llvm.lifetime.start.p0(i64 8, ptr %10) #7
  call void @llvm.lifetime.start.p0(i64 1, ptr %11) #7
  %110 = load ptr, ptr %5, align 8
  %111 = load i8, ptr %7, align 1, !range !4, !noundef !5
  %112 = trunc i8 %111 to i1
  %113 = call ptr @tuplestore_gettuple(ptr noundef %110, i1 noundef zeroext %112, ptr noundef %11)
  store ptr %113, ptr %10, align 8
  %114 = load ptr, ptr %10, align 8
  %115 = icmp eq ptr %114, null
  br i1 %115, label %116, label %117

116:                                              ; preds = %109
  store i1 false, ptr %4, align 1
  store i32 1, ptr %9, align 4
  br label %134

117:                                              ; preds = %109
  %118 = load i8, ptr %11, align 1, !range !4, !noundef !5
  %119 = trunc i8 %118 to i1
  br i1 %119, label %120, label %122

120:                                              ; preds = %117
  %121 = load ptr, ptr %10, align 8
  call void @pfree(ptr noundef %121)
  br label %122

122:                                              ; preds = %120, %117
  br label %123

123:                                              ; preds = %122
  %124 = load volatile i32, ptr @InterruptPending, align 4
  %125 = icmp ne i32 %124, 0
  %126 = zext i1 %125 to i32
  %127 = sext i32 %126 to i64
  %128 = call i64 @llvm.expect.i64(i64 %127, i64 0)
  %129 = icmp ne i64 %128, 0
  br i1 %129, label %130, label %131

130:                                              ; preds = %123
  call void @ProcessInterrupts()
  br label %131

131:                                              ; preds = %130, %123
  br label %132

132:                                              ; preds = %131
  br label %133

133:                                              ; preds = %132
  store i32 0, ptr %9, align 4
  br label %134

134:                                              ; preds = %133, %116
  call void @llvm.lifetime.end.p0(i64 1, ptr %11) #7
  call void @llvm.lifetime.end.p0(i64 8, ptr %10) #7
  %135 = load i32, ptr %9, align 4
  switch i32 %135, label %138 [
    i32 0, label %136
  ]

136:                                              ; preds = %134
  br label %105, !llvm.loop !12

137:                                              ; preds = %105
  store i1 true, ptr %4, align 1
  store i32 1, ptr %9, align 4
  br label %138

138:                                              ; preds = %137, %134, %98, %90, %56, %48, %36, %23
  call void @llvm.lifetime.end.p0(i64 8, ptr %8) #7
  %139 = load i1, ptr %4, align 1
  ret i1 %139
}