; Function Attrs: nounwind uwtable
define dso_local noundef zeroext i1 @tuplestore_skiptuples(ptr noundef %0, i64 noundef %1, i1 noundef zeroext %2) local_unnamed_addr #0 {
  %4 = alloca i8, align 1
  %5 = getelementptr inbounds nuw i8, ptr %0, i64 120
  %6 = load ptr, ptr %5, align 8
  %7 = getelementptr inbounds nuw i8, ptr %0, i64 128
  %8 = load i32, ptr %7, align 8
  %9 = sext i32 %8 to i64
  %10 = getelementptr inbounds %struct.TSReadPointer, ptr %6, i64 %9
  %11 = icmp slt i64 %1, 1
  br i1 %11, label %.loopexit, label %12

12:                                               ; preds = %3
  %13 = load i32, ptr %0, align 8
  %cond = icmp eq i32 %13, 0
  br i1 %cond, label %14, label %.lr.ph

14:                                               ; preds = %12
  %15 = getelementptr inbounds nuw i8, ptr %10, i64 4
  %16 = load i8, ptr %15, align 4, !range !4, !noundef !5
  %17 = trunc nuw i8 %16 to i1
  br i1 %2, label %18, label %30

18:                                               ; preds = %14
  br i1 %17, label %.loopexit, label %19

19:                                               ; preds = %18
  %20 = getelementptr inbounds nuw i8, ptr %0, i64 108
  %21 = load i32, ptr %20, align 4
  %22 = getelementptr inbounds nuw i8, ptr %10, i64 8
  %23 = load i32, ptr %22, align 8
  %24 = sub i32 %21, %23
  %25 = sext i32 %24 to i64
  %.not39 = icmp sgt i64 %1, %25
  br i1 %.not39, label %29, label %26

26:                                               ; preds = %19
  %27 = trunc i64 %1 to i32
  %28 = add i32 %23, %27
  store i32 %28, ptr %22, align 8
  br label %.loopexit

29:                                               ; preds = %19
  store i32 %21, ptr %22, align 8
  store i8 1, ptr %15, align 4
  br label %.loopexit

30:                                               ; preds = %14
  br i1 %17, label %31, label %._crit_edge

._crit_edge:                                      ; preds = %30
  %.phi.trans.insert = getelementptr inbounds nuw i8, ptr %10, i64 8
  %.pre = load i32, ptr %.phi.trans.insert, align 8
  br label %36

31:                                               ; preds = %30
  %32 = getelementptr inbounds nuw i8, ptr %0, i64 108
  %33 = load i32, ptr %32, align 4
  %34 = getelementptr inbounds nuw i8, ptr %10, i64 8
  store i32 %33, ptr %34, align 8
  store i8 0, ptr %15, align 4
  %35 = add nsw i64 %1, -1
  br label %36

36:                                               ; preds = %._crit_edge, %31
  %37 = phi i32 [ %33, %31 ], [ %.pre, %._crit_edge ]
  %.034 = phi i64 [ %35, %31 ], [ %1, %._crit_edge ]
  %38 = getelementptr inbounds nuw i8, ptr %10, i64 8
  %39 = getelementptr inbounds nuw i8, ptr %0, i64 104
  %40 = load i32, ptr %39, align 8
  %41 = sub i32 %37, %40
  %42 = sext i32 %41 to i64
  %43 = icmp slt i64 %.034, %42
  br i1 %43, label %44, label %47

44:                                               ; preds = %36
  %45 = trunc i64 %.034 to i32
  %46 = sub i32 %37, %45
  store i32 %46, ptr %38, align 8
  br label %.loopexit

47:                                               ; preds = %36
  store i32 %40, ptr %38, align 8
  br label %.loopexit

.lr.ph:                                           ; preds = %12, %57
  %.in = phi i64 [ %48, %57 ], [ %1, %12 ]
  %48 = add nsw i64 %.in, -1
  call void @llvm.lifetime.start.p0(i64 1, ptr nonnull %4) #9
  %49 = call fastcc ptr @tuplestore_gettuple(ptr noundef nonnull %0, i1 noundef zeroext %2, ptr noundef %4)
  %.not38 = icmp eq ptr %49, null
  br i1 %.not38, label %.critedge, label %50

50:                                               ; preds = %.lr.ph
  %51 = load i8, ptr %4, align 1, !range !4, !noundef !5
  %52 = trunc nuw i8 %51 to i1
  br i1 %52, label %53, label %54

53:                                               ; preds = %50
  tail call void @pfree(ptr noundef nonnull %49) #9
  br label %54

54:                                               ; preds = %50, %53
  %55 = load volatile i32, ptr @InterruptPending, align 4
  %.not = icmp eq i32 %55, 0
  br i1 %.not, label %57, label %56, !prof !13

56:                                               ; preds = %54
  tail call void @ProcessInterrupts() #9
  br label %57

57:                                               ; preds = %54, %56
  call void @llvm.lifetime.end.p0(i64 1, ptr nonnull %4) #9
  %58 = icmp samesign ugt i64 %.in, 1
  br i1 %58, label %.lr.ph, label %.loopexit, !llvm.loop !14

.critedge:                                        ; preds = %.lr.ph
  call void @llvm.lifetime.end.p0(i64 1, ptr nonnull %4) #9
  br label %.loopexit

.loopexit:                                        ; preds = %57, %.critedge, %18, %3, %47, %44, %29, %26
  %.0 = phi i1 [ true, %26 ], [ false, %29 ], [ true, %44 ], [ false, %47 ], [ true, %3 ], [ false, %18 ], [ false, %.critedge ], [ true, %57 ]
  ret i1 %.0
}